; Function Attrs: nounwind uwtable
define hidden void @_PyErr_ChainStackItem() local_unnamed_addr #0 {
  %1 = tail call align 8 ptr @llvm.threadlocal.address.p0(ptr align 8 @_Py_tss_tstate)
  %2 = load ptr, ptr %1, align 8, !tbaa !25
  %3 = getelementptr inbounds nuw i8, ptr %2, i64 120
  %4 = load ptr, ptr %3, align 8, !tbaa !38
  %5 = load ptr, ptr %4, align 8, !tbaa !39
  %6 = icmp eq ptr %5, null
  %7 = icmp eq ptr %5, @_Py_NoneStruct
  %or.cond = or i1 %6, %7
  br i1 %or.cond, label %Py_DECREF.exit, label %8

8:                                                ; preds = %0
  %9 = getelementptr inbounds nuw i8, ptr %2, i64 112
  %10 = load ptr, ptr %9, align 8, !tbaa !4
  store ptr null, ptr %9, align 8, !tbaa !4
  %11 = getelementptr i8, ptr %10, i64 8
  %.val = load ptr, ptr %11, align 8, !tbaa !21
  tail call void @_PyErr_SetObject(ptr noundef nonnull %2, ptr noundef %.val, ptr noundef %10)
  %12 = load i32, ptr %10, align 8, !tbaa !20
  %.not.i = icmp sgt i32 %12, -1
  br i1 %.not.i, label %13, label %Py_DECREF.exit

13:                                               ; preds = %8
  %14 = add nsw i32 %12, -1
  store i32 %14, ptr %10, align 8, !tbaa !20
  %15 = icmp eq i32 %14, 0
  br i1 %15, label %16, label %Py_DECREF.exit

16:                                               ; preds = %13
  tail call void @_Py_Dealloc(ptr noundef nonnull %10) #17
  br label %Py_DECREF.exit

Py_DECREF.exit:                                   ; preds = %16, %13, %8, %0
  ret void
}